target datalayout = "e-m:e-p270:32:32-p271:32:32-p272:64:64-i64:64-i128:128-f80:128-n8:16:32:64-S128"
target triple = "x86_64-pc-linux-gnu"

%struct.AVRational = type { i32, i32 }
%struct.cavs_vector = type { i16, i16, i16, i16 }
%struct.AVChannelLayout = type { i32, i32, %union.anon.0, ptr }
%union.anon.0 = type { i64 }
%struct.AVSContext = type { ptr, %struct.BlockDSPContext, %struct.H264ChromaContext, %struct.VideoDSPContext, %struct.CAVSDSPContext, %struct.GetBitContext, %struct.AVSFrame, [2 x %struct.AVSFrame], [2 x i32], i32, i32, i32, i32, i32, i32, i32, i32, i32, i32, i32, i32, i32, i32, i32, i32, i32, i32, i32, i32, i32, ptr, ptr, ptr, i32, ptr, [24 x %struct.cavs_vector], [2 x ptr], ptr, [9 x i32], ptr, i64, i64, [4 x i32], i32, i32, i32, i32, [64 x i8], ptr, ptr, ptr, [26 x i8], [10 x i8], [10 x i8], [26 x i8], i8, i8, i8, [8 x ptr], [7 x ptr], ptr, i32, [2 x i32], [2 x i32], ptr, i32, ptr }
%struct.BlockDSPContext = type { ptr, ptr, [2 x ptr] }
%struct.H264ChromaContext = type { [4 x ptr], [4 x ptr] }
%struct.VideoDSPContext = type { ptr, ptr }
%struct.CAVSDSPContext = type { [2 x [16 x ptr]], [2 x [16 x ptr]], ptr, ptr, ptr, ptr, ptr, i32 }
%struct.GetBitContext = type { ptr, ptr, i32, i32, i32 }
%struct.AVSFrame = type { ptr, i32 }
%struct.AVFrame = type { [8 x ptr], [8 x i32], ptr, i32, i32, i32, i32, i32, %struct.AVRational, i64, i64, %struct.AVRational, i32, ptr, i32, i32, [8 x ptr], ptr, i32, ptr, i32, i32, i32, i32, i32, i32, i32, i64, ptr, i32, ptr, ptr, i64, i64, i64, i64, ptr, %struct.AVChannelLayout, i64 }

@.str.21 = private unnamed_addr constant [30 x i8] c"unexpected start code 0x%02x\0A\00", align 1
@.str.22 = private unnamed_addr constant [25 x i8] c"stc 0x%02x is too large\0A\00", align 1
@.str.23 = private unnamed_addr constant [39 x i8] c"weighted prediction not yet supported\0A\00", align 1

; Function Attrs: alwaysinline nounwind willreturn memory(none) uwtable
define internal i32 @av_bswap32(i32 noundef %0) #5 {
  %2 = alloca i32, align 4
  store i32 %0, ptr %2, align 4, !tbaa !40
  %3 = load i32, ptr %2, align 4, !tbaa !40
  %4 = shl i32 %3, 8
  %5 = and i32 %4, 65280
  %6 = load i32, ptr %2, align 4, !tbaa !40
  %7 = lshr i32 %6, 8
  %8 = and i32 %7, 255
  %9 = or i32 %5, %8
  %10 = shl i32 %9, 16
  %11 = load i32, ptr %2, align 4, !tbaa !40
  %12 = lshr i32 %11, 16
  %13 = shl i32 %12, 8
  %14 = and i32 %13, 65280
  %15 = load i32, ptr %2, align 4, !tbaa !40
  %16 = lshr i32 %15, 16
  %17 = lshr i32 %16, 8
  %18 = and i32 %17, 255
  %19 = or i32 %14, %18
  %20 = or i32 %10, %19
  ret i32 %20
}

; Function Attrs: inlinehint nounwind uwtable
define internal i32 @get_bits(ptr noundef %0, i32 noundef %1) #3 {
  %3 = alloca ptr, align 8
  %4 = alloca i32, align 4
  %5 = alloca i32, align 4
  %6 = alloca i32, align 4
  %7 = alloca i32, align 4
  %8 = alloca i32, align 4
  store ptr %0, ptr %3, align 8, !tbaa !60
  store i32 %1, ptr %4, align 4, !tbaa !40
  call void @llvm.lifetime.start.p0(i64 4, ptr %5) #6
  call void @llvm.lifetime.start.p0(i64 4, ptr %6) #6
  %9 = load ptr, ptr %3, align 8, !tbaa !60
  %10 = getelementptr inbounds nuw %struct.GetBitContext, ptr %9, i32 0, i32 2
  %11 = load i32, ptr %10, align 8, !tbaa !66
  store i32 %11, ptr %6, align 4, !tbaa !40
  call void @llvm.lifetime.start.p0(i64 4, ptr %7) #6
  call void @llvm.lifetime.start.p0(i64 4, ptr %8) #6
  %12 = load ptr, ptr %3, align 8, !tbaa !60
  %13 = getelementptr inbounds nuw %struct.GetBitContext, ptr %12, i32 0, i32 4
  %14 = load i32, ptr %13, align 8, !tbaa !64
  store i32 %14, ptr %8, align 4, !tbaa !40
  %15 = load ptr, ptr %3, align 8, !tbaa !60
  %16 = getelementptr inbounds nuw %struct.GetBitContext, ptr %15, i32 0, i32 0
  %17 = load ptr, ptr %16, align 8, !tbaa !62
  %18 = load i32, ptr %6, align 4, !tbaa !40
  %19 = lshr i32 %18, 3
  %20 = zext i32 %19 to i64
  %21 = getelementptr inbounds nuw i8, ptr %17, i64 %20
  %22 = load i32, ptr %21, align 1, !tbaa !99
  %23 = call i32 @av_bswap32(i32 noundef %22) #7
  %24 = load i32, ptr %6, align 4, !tbaa !40
  %25 = and i32 %24, 7
  %26 = shl i32 %23, %25
  %27 = lshr i32 %26, 0
  store i32 %27, ptr %7, align 4, !tbaa !40
  %28 = load i32, ptr %7, align 4, !tbaa !40
  %29 = load i32, ptr %4, align 4, !tbaa !40
  %30 = sub nsw i32 32, %29
  %31 = lshr i32 %28, %30
  store i32 %31, ptr %5, align 4, !tbaa !40
  %32 = load i32, ptr %8, align 4, !tbaa !40
  %33 = load i32, ptr %6, align 4, !tbaa !40
  %34 = load i32, ptr %4, align 4, !tbaa !40
  %35 = add i32 %33, %34
  %36 = icmp ugt i32 %32, %35
  br i1 %36, label %37, label %41

37:                                               ; preds = %2
  %38 = load i32, ptr %6, align 4, !tbaa !40
  %39 = load i32, ptr %4, align 4, !tbaa !40
  %40 = add i32 %38, %39
  br label %43

41:                                               ; preds = %2
  %42 = load i32, ptr %8, align 4, !tbaa !40
  br label %43

43:                                               ; preds = %41, %37
  %44 = phi i32 [ %40, %37 ], [ %42, %41 ]
  store i32 %44, ptr %6, align 4, !tbaa !40
  %45 = load i32, ptr %6, align 4, !tbaa !40
  %46 = load ptr, ptr %3, align 8, !tbaa !60
  %47 = getelementptr inbounds nuw %struct.GetBitContext, ptr %46, i32 0, i32 2
  store i32 %45, ptr %47, align 8, !tbaa !66
  %48 = load i32, ptr %5, align 4, !tbaa !40
  call void @llvm.lifetime.end.p0(i64 4, ptr %8) #6
  call void @llvm.lifetime.end.p0(i64 4, ptr %7) #6
  call void @llvm.lifetime.end.p0(i64 4, ptr %6) #6
  call void @llvm.lifetime.end.p0(i64 4, ptr %5) #6
  ret i32 %48
}

; Function Attrs: inlinehint nounwind uwtable
define internal i32 @get_bits1(ptr noundef %0) #3 {
  %2 = alloca ptr, align 8
  %3 = alloca i32, align 4
  %4 = alloca i8, align 1
  store ptr %0, ptr %2, align 8, !tbaa !60
  call void @llvm.lifetime.start.p0(i64 4, ptr %3) #6
  %5 = load ptr, ptr %2, align 8, !tbaa !60
  %6 = getelementptr inbounds nuw %struct.GetBitContext, ptr %5, i32 0, i32 2
  %7 = load i32, ptr %6, align 8, !tbaa !66
  store i32 %7, ptr %3, align 4, !tbaa !40
  call void @llvm.lifetime.start.p0(i64 1, ptr %4) #6
  %8 = load ptr, ptr %2, align 8, !tbaa !60
  %9 = getelementptr inbounds nuw %struct.GetBitContext, ptr %8, i32 0, i32 0
  %10 = load ptr, ptr %9, align 8, !tbaa !62
  %11 = load i32, ptr %3, align 4, !tbaa !40
  %12 = lshr i32 %11, 3
  %13 = zext i32 %12 to i64
  %14 = getelementptr inbounds nuw i8, ptr %10, i64 %13
  %15 = load i8, ptr %14, align 1, !tbaa !99
  store i8 %15, ptr %4, align 1, !tbaa !99
  %16 = load i32, ptr %3, align 4, !tbaa !40
  %17 = and i32 %16, 7
  %18 = load i8, ptr %4, align 1, !tbaa !99
  %19 = zext i8 %18 to i32
  %20 = shl i32 %19, %17
  %21 = trunc i32 %20 to i8
  store i8 %21, ptr %4, align 1, !tbaa !99
  %22 = load i8, ptr %4, align 1, !tbaa !99
  %23 = zext i8 %22 to i32
  %24 = ashr i32 %23, 7
  %25 = trunc i32 %24 to i8
  store i8 %25, ptr %4, align 1, !tbaa !99
  %26 = load ptr, ptr %2, align 8, !tbaa !60
  %27 = getelementptr inbounds nuw %struct.GetBitContext, ptr %26, i32 0, i32 2
  %28 = load i32, ptr %27, align 8, !tbaa !66
  %29 = load ptr, ptr %2, align 8, !tbaa !60
  %30 = getelementptr inbounds nuw %struct.GetBitContext, ptr %29, i32 0, i32 4
  %31 = load i32, ptr %30, align 8, !tbaa !64
  %32 = icmp slt i32 %28, %31
  br i1 %32, label %33, label %36

33:                                               ; preds = %1
  %34 = load i32, ptr %3, align 4, !tbaa !40
  %35 = add i32 %34, 1
  store i32 %35, ptr %3, align 4, !tbaa !40
  br label %36

36:                                               ; preds = %33, %1
  %37 = load i32, ptr %3, align 4, !tbaa !40
  %38 = load ptr, ptr %2, align 8, !tbaa !60
  %39 = getelementptr inbounds nuw %struct.GetBitContext, ptr %38, i32 0, i32 2
  store i32 %37, ptr %39, align 8, !tbaa !66
  %40 = load i8, ptr %4, align 1, !tbaa !99
  %41 = zext i8 %40 to i32
  call void @llvm.lifetime.end.p0(i64 1, ptr %4) #6
  call void @llvm.lifetime.end.p0(i64 4, ptr %3) #6
  ret i32 %41
}

; Function Attrs: inlinehint nounwind uwtable
define internal i32 @decode_slice_header(ptr noundef %0, ptr noundef %1) #3 {
  %3 = alloca i32, align 4
  %4 = alloca ptr, align 8
  %5 = alloca ptr, align 8
  store ptr %0, ptr %4, align 8, !tbaa !34
  store ptr %1, ptr %5, align 8, !tbaa !60
  %6 = load ptr, ptr %4, align 8, !tbaa !34
  %7 = getelementptr inbounds nuw %struct.AVSContext, ptr %6, i32 0, i32 29
  %8 = load i32, ptr %7, align 8, !tbaa !51
  %9 = icmp sgt i32 %8, 175
  br i1 %9, label %10, label %17

10:                                               ; preds = %2
  %11 = load ptr, ptr %4, align 8, !tbaa !34
  %12 = getelementptr inbounds nuw %struct.AVSContext, ptr %11, i32 0, i32 0
  %13 = load ptr, ptr %12, align 8, !tbaa !52
  %14 = load ptr, ptr %4, align 8, !tbaa !34
  %15 = getelementptr inbounds nuw %struct.AVSContext, ptr %14, i32 0, i32 29
  %16 = load i32, ptr %15, align 8, !tbaa !51
  call void (ptr, i32, ptr, ...) @av_log(ptr noundef %13, i32 noundef 16, ptr noundef @.str.21, i32 noundef %16)
  br label %17

17:                                               ; preds = %10, %2
  %18 = load ptr, ptr %4, align 8, !tbaa !34
  %19 = getelementptr inbounds nuw %struct.AVSContext, ptr %18, i32 0, i32 29
  %20 = load i32, ptr %19, align 8, !tbaa !51
  %21 = load ptr, ptr %4, align 8, !tbaa !34
  %22 = getelementptr inbounds nuw %struct.AVSContext, ptr %21, i32 0, i32 14
  %23 = load i32, ptr %22, align 4, !tbaa !73
  %24 = icmp sge i32 %20, %23
  br i1 %24, label %25, label %32

25:                                               ; preds = %17
  %26 = load ptr, ptr %4, align 8, !tbaa !34
  %27 = getelementptr inbounds nuw %struct.AVSContext, ptr %26, i32 0, i32 0
  %28 = load ptr, ptr %27, align 8, !tbaa !52
  %29 = load ptr, ptr %4, align 8, !tbaa !34
  %30 = getelementptr inbounds nuw %struct.AVSContext, ptr %29, i32 0, i32 29
  %31 = load i32, ptr %30, align 8, !tbaa !51
  call void (ptr, i32, ptr, ...) @av_log(ptr noundef %28, i32 noundef 16, ptr noundef @.str.22, i32 noundef %31)
  store i32 -1094995529, ptr %3, align 4
  br label %96

32:                                               ; preds = %17
  %33 = load ptr, ptr %4, align 8, !tbaa !34
  %34 = getelementptr inbounds nuw %struct.AVSContext, ptr %33, i32 0, i32 29
  %35 = load i32, ptr %34, align 8, !tbaa !51
  %36 = load ptr, ptr %4, align 8, !tbaa !34
  %37 = getelementptr inbounds nuw %struct.AVSContext, ptr %36, i32 0, i32 26
  store i32 %35, ptr %37, align 4, !tbaa !96
  %38 = load ptr, ptr %4, align 8, !tbaa !34
  %39 = getelementptr inbounds nuw %struct.AVSContext, ptr %38, i32 0, i32 26
  %40 = load i32, ptr %39, align 4, !tbaa !96
  %41 = load ptr, ptr %4, align 8, !tbaa !34
  %42 = getelementptr inbounds nuw %struct.AVSContext, ptr %41, i32 0, i32 13
  %43 = load i32, ptr %42, align 8, !tbaa !72
  %44 = mul nsw i32 %40, %43
  %45 = load ptr, ptr %4, align 8, !tbaa !34
  %46 = getelementptr inbounds nuw %struct.AVSContext, ptr %45, i32 0, i32 27
  store i32 %44, ptr %46, align 8, !tbaa !97
  %47 = load ptr, ptr %4, align 8, !tbaa !34
  %48 = getelementptr inbounds nuw %struct.AVSContext, ptr %47, i32 0, i32 28
  %49 = load i32, ptr %48, align 4, !tbaa !98
  %50 = and i32 %49, -7
  store i32 %50, ptr %48, align 4, !tbaa !98
  %51 = load ptr, ptr %4, align 8, !tbaa !34
  %52 = getelementptr inbounds nuw %struct.AVSContext, ptr %51, i32 0, i32 45
  %53 = load i32, ptr %52, align 8, !tbaa !84
  %54 = icmp ne i32 %53, 0
  br i1 %54, label %64, label %55

55:                                               ; preds = %32
  %56 = load ptr, ptr %5, align 8, !tbaa !60
  %57 = call i32 @get_bits1(ptr noundef %56)
  %58 = load ptr, ptr %4, align 8, !tbaa !34
  %59 = getelementptr inbounds nuw %struct.AVSContext, ptr %58, i32 0, i32 44
  store i32 %57, ptr %59, align 4, !tbaa !83
  %60 = load ptr, ptr %5, align 8, !tbaa !60
  %61 = call i32 @get_bits(ptr noundef %60, i32 noundef 6)
  %62 = load ptr, ptr %4, align 8, !tbaa !34
  %63 = getelementptr inbounds nuw %struct.AVSContext, ptr %62, i32 0, i32 43
  store i32 %61, ptr %63, align 8, !tbaa !85
  br label %64

64:                                               ; preds = %55, %32
  %65 = load ptr, ptr %4, align 8, !tbaa !34
  %66 = getelementptr inbounds nuw %struct.AVSContext, ptr %65, i32 0, i32 6
  %67 = getelementptr inbounds nuw %struct.AVSFrame, ptr %66, i32 0, i32 0
  %68 = load ptr, ptr %67, align 8, !tbaa !54
  %69 = getelementptr inbounds nuw %struct.AVFrame, ptr %68, i32 0, i32 7
  %70 = load i32, ptr %69, align 8, !tbaa !55
  %71 = icmp ne i32 %70, 1
  br i1 %71, label %86, label %72

72:                                               ; preds = %64
  %73 = load ptr, ptr %4, align 8, !tbaa !34
  %74 = getelementptr inbounds nuw %struct.AVSContext, ptr %73, i32 0, i32 19
  %75 = load i32, ptr %74, align 8, !tbaa !82
  %76 = icmp ne i32 %75, 0
  br i1 %76, label %95, label %77

77:                                               ; preds = %72
  %78 = load ptr, ptr %4, align 8, !tbaa !34
  %79 = getelementptr inbounds nuw %struct.AVSContext, ptr %78, i32 0, i32 26
  %80 = load i32, ptr %79, align 4, !tbaa !96
  %81 = load ptr, ptr %4, align 8, !tbaa !34
  %82 = getelementptr inbounds nuw %struct.AVSContext, ptr %81, i32 0, i32 13
  %83 = load i32, ptr %82, align 8, !tbaa !72
  %84 = sdiv i32 %83, 2
  %85 = icmp sge i32 %80, %84
  br i1 %85, label %86, label %95

86:                                               ; preds = %77, %64
  %87 = load ptr, ptr %5, align 8, !tbaa !60
  %88 = call i32 @get_bits1(ptr noundef %87)
  %89 = icmp ne i32 %88, 0
  br i1 %89, label %90, label %94

90:                                               ; preds = %86
  %91 = load ptr, ptr %4, align 8, !tbaa !34
  %92 = getelementptr inbounds nuw %struct.AVSContext, ptr %91, i32 0, i32 0
  %93 = load ptr, ptr %92, align 8, !tbaa !52
  call void (ptr, i32, ptr, ...) @av_log(ptr noundef %93, i32 noundef 16, ptr noundef @.str.23)
  br label %94

94:                                               ; preds = %90, %86
  br label %95

95:                                               ; preds = %94, %77, %72
  store i32 0, ptr %3, align 4
  br label %96

96:                                               ; preds = %95, %25
  %97 = load i32, ptr %3, align 4
  ret i32 %97
}