; Function Attrs: inlinehint nounwind uwtable
define internal fastcc void @decode_slice_header(ptr noundef captures(none) %0, ptr noundef captures(none) %1) unnamed_addr #4 {
  %3 = getelementptr inbounds nuw i8, ptr %0, i64 848
  %4 = load i32, ptr %3, align 8, !tbaa !44
  %5 = icmp sgt i32 %4, 175
  br i1 %5, label %6, label %8

6:                                                ; preds = %2
  %7 = load ptr, ptr %0, align 8, !tbaa !45
  tail call void (ptr, i32, ptr, ...) @av_log(ptr noundef %7, i32 noundef 16, ptr noundef nonnull @.str.21, i32 noundef %4) #7
  %.pre = load i32, ptr %3, align 8, !tbaa !44
  br label %8

8:                                                ; preds = %6, %2
  %9 = phi i32 [ %.pre, %6 ], [ %4, %2 ]
  %10 = getelementptr inbounds nuw i8, ptr %0, i64 788
  %11 = load i32, ptr %10, align 4, !tbaa !58
  %.not = icmp slt i32 %9, %11
  br i1 %.not, label %14, label %12

12:                                               ; preds = %8
  %13 = load ptr, ptr %0, align 8, !tbaa !45
  tail call void (ptr, i32, ptr, ...) @av_log(ptr noundef %13, i32 noundef 16, ptr noundef nonnull @.str.22, i32 noundef %9) #7
  br label %81

14:                                               ; preds = %8
  %15 = getelementptr inbounds nuw i8, ptr %0, i64 836
  store i32 %9, ptr %15, align 4, !tbaa !93
  %16 = getelementptr inbounds nuw i8, ptr %0, i64 784
  %17 = load i32, ptr %16, align 8, !tbaa !57
  %18 = mul nsw i32 %17, %9
  %19 = getelementptr inbounds nuw i8, ptr %0, i64 840
  store i32 %18, ptr %19, align 8, !tbaa !87
  %20 = getelementptr inbounds nuw i8, ptr %0, i64 844
  %21 = load i32, ptr %20, align 4, !tbaa !94
  %22 = and i32 %21, -7
  store i32 %22, ptr %20, align 4, !tbaa !94
  %23 = getelementptr inbounds nuw i8, ptr %0, i64 1200
  %24 = load i32, ptr %23, align 8, !tbaa !75
  %.not26 = icmp eq i32 %24, 0
  br i1 %.not26, label %25, label %54

25:                                               ; preds = %14
  %26 = getelementptr inbounds nuw i8, ptr %1, i64 16
  %27 = load i32, ptr %26, align 8, !tbaa !50
  %28 = load ptr, ptr %1, align 8, !tbaa !46
  %29 = lshr i32 %27, 3
  %30 = zext nneg i32 %29 to i64
  %31 = getelementptr inbounds nuw i8, ptr %28, i64 %30
  %32 = load i8, ptr %31, align 1, !tbaa !51
  %33 = getelementptr inbounds nuw i8, ptr %1, i64 24
  %34 = load i32, ptr %33, align 8, !tbaa !48
  %35 = icmp slt i32 %27, %34
  %36 = zext i1 %35 to i32
  %spec.select.i = add i32 %27, %36
  %37 = zext i8 %32 to i32
  %38 = and i32 %27, 7
  %39 = shl nuw nsw i32 %37, %38
  %40 = lshr i32 %39, 7
  store i32 %spec.select.i, ptr %26, align 8, !tbaa !50
  %41 = and i32 %40, 1
  %42 = getelementptr inbounds nuw i8, ptr %0, i64 1196
  store i32 %41, ptr %42, align 4, !tbaa !74
  %43 = lshr i32 %spec.select.i, 3
  %44 = zext nneg i32 %43 to i64
  %45 = getelementptr inbounds nuw i8, ptr %28, i64 %44
  %46 = load i32, ptr %45, align 1, !tbaa !51
  %47 = tail call i32 @llvm.bswap.i32(i32 %46)
  %48 = and i32 %spec.select.i, 7
  %49 = shl i32 %47, %48
  %50 = lshr i32 %49, 26
  %51 = add i32 %spec.select.i, 6
  %52 = tail call i32 @llvm.umin.i32(i32 %34, i32 %51)
  store i32 %52, ptr %26, align 8, !tbaa !50
  %53 = getelementptr inbounds nuw i8, ptr %0, i64 1192
  store i32 %50, ptr %53, align 8, !tbaa !76
  br label %54

54:                                               ; preds = %25, %14
  %55 = getelementptr inbounds nuw i8, ptr %0, i64 712
  %56 = load ptr, ptr %55, align 8, !tbaa !61
  %57 = getelementptr inbounds nuw i8, ptr %56, i64 120
  %58 = load i32, ptr %57, align 8, !tbaa !62
  %.not27 = icmp eq i32 %58, 1
  br i1 %.not27, label %59, label %63

59:                                               ; preds = %54
  %60 = getelementptr inbounds nuw i8, ptr %0, i64 808
  %61 = load i32, ptr %60, align 8, !tbaa !73
  %.not28 = icmp ne i32 %61, 0
  %62 = sdiv i32 %17, 2
  %.not29 = icmp slt i32 %9, %62
  %or.cond = select i1 %.not28, i1 true, i1 %.not29
  br i1 %or.cond, label %81, label %63

63:                                               ; preds = %59, %54
  %64 = getelementptr inbounds nuw i8, ptr %1, i64 16
  %65 = load i32, ptr %64, align 8, !tbaa !50
  %66 = load ptr, ptr %1, align 8, !tbaa !46
  %67 = lshr i32 %65, 3
  %68 = zext nneg i32 %67 to i64
  %69 = getelementptr inbounds nuw i8, ptr %66, i64 %68
  %70 = load i8, ptr %69, align 1, !tbaa !51
  %71 = getelementptr inbounds nuw i8, ptr %1, i64 24
  %72 = load i32, ptr %71, align 8, !tbaa !48
  %73 = icmp slt i32 %65, %72
  %74 = zext i1 %73 to i32
  %spec.select.i31 = add i32 %65, %74
  %75 = zext i8 %70 to i32
  %76 = and i32 %65, 7
  store i32 %spec.select.i31, ptr %64, align 8, !tbaa !50
  %77 = lshr exact i32 128, %76
  %78 = and i32 %77, %75
  %.not30 = icmp eq i32 %78, 0
  br i1 %.not30, label %81, label %79

79:                                               ; preds = %63
  %80 = load ptr, ptr %0, align 8, !tbaa !45
  tail call void (ptr, i32, ptr, ...) @av_log(ptr noundef %80, i32 noundef 16, ptr noundef nonnull @.str.23) #7
  br label %81

81:                                               ; preds = %59, %79, %63, %12
  ret void
}